target datalayout = "e-m:e-p270:32:32-p271:32:32-p272:64:64-i64:64-i128:128-f80:128-n8:16:32:64-S128"
target triple = "x86_64-pc-linux-gnu"

%struct.conf_value_st = type { ptr, ptr, ptr }
%struct.v3_ext_ctx = type { i32, ptr, ptr, ptr, ptr, ptr, ptr }

@.str.25 = private unnamed_addr constant [126 x i8] c"generated/home/dtcxzyw/WorkSpace/Projects/compilers/llvm-opt-benchmark/bench/libquic/libquic/boringssl/crypto/x509v3/v3_alt.c\00", align 1
@.str.32 = private unnamed_addr constant [7 x i8] c"issuer\00", align 1
@.str.33 = private unnamed_addr constant [5 x i8] c"copy\00", align 1

; Function Attrs: nounwind uwtable
define hidden ptr @v2i_GENERAL_NAME(ptr noundef %0, ptr noundef %1, ptr noundef %2) #0 {
  %4 = alloca ptr, align 8
  %5 = alloca ptr, align 8
  %6 = alloca ptr, align 8
  store ptr %0, ptr %4, align 8, !tbaa !6
  store ptr %1, ptr %5, align 8, !tbaa !21
  store ptr %2, ptr %6, align 8, !tbaa !23
  %7 = load ptr, ptr %4, align 8, !tbaa !6
  %8 = load ptr, ptr %5, align 8, !tbaa !21
  %9 = load ptr, ptr %6, align 8, !tbaa !23
  %10 = call ptr @v2i_GENERAL_NAME_ex(ptr noundef null, ptr noundef %7, ptr noundef %8, ptr noundef %9, i32 noundef 0)
  ret ptr %10
}

; Function Attrs: nounwind uwtable
define internal i32 @copy_issuer(ptr noundef %0, ptr noundef %1) #0 {
  %3 = alloca i32, align 4
  %4 = alloca ptr, align 8
  %5 = alloca ptr, align 8
  %6 = alloca ptr, align 8
  %7 = alloca ptr, align 8
  %8 = alloca ptr, align 8
  %9 = alloca i32, align 4
  %10 = alloca i64, align 8
  %11 = alloca i32, align 4
  store ptr %0, ptr %4, align 8, !tbaa !21
  store ptr %1, ptr %5, align 8, !tbaa !11
  call void @llvm.lifetime.start.p0(i64 8, ptr %6) #6
  call void @llvm.lifetime.start.p0(i64 8, ptr %7) #6
  call void @llvm.lifetime.start.p0(i64 8, ptr %8) #6
  call void @llvm.lifetime.start.p0(i64 4, ptr %9) #6
  call void @llvm.lifetime.start.p0(i64 8, ptr %10) #6
  %12 = load ptr, ptr %4, align 8, !tbaa !21
  %13 = icmp ne ptr %12, null
  br i1 %13, label %14, label %20

14:                                               ; preds = %2
  %15 = load ptr, ptr %4, align 8, !tbaa !21
  %16 = getelementptr inbounds nuw %struct.v3_ext_ctx, ptr %15, i32 0, i32 0
  %17 = load i32, ptr %16, align 8, !tbaa !53
  %18 = icmp eq i32 %17, 1
  br i1 %18, label %19, label %20

19:                                               ; preds = %14
  store i32 1, ptr %3, align 4
  store i32 1, ptr %11, align 4
  br label %71

20:                                               ; preds = %14, %2
  %21 = load ptr, ptr %4, align 8, !tbaa !21
  %22 = icmp ne ptr %21, null
  br i1 %22, label %23, label %28

23:                                               ; preds = %20
  %24 = load ptr, ptr %4, align 8, !tbaa !21
  %25 = getelementptr inbounds nuw %struct.v3_ext_ctx, ptr %24, i32 0, i32 1
  %26 = load ptr, ptr %25, align 8, !tbaa !59
  %27 = icmp ne ptr %26, null
  br i1 %27, label %29, label %28

28:                                               ; preds = %23, %20
  call void @ERR_put_error(i32 noundef 20, i32 noundef 0, i32 noundef 141, ptr noundef @.str.25, i32 noundef 283)
  br label %70

29:                                               ; preds = %23
  %30 = load ptr, ptr %4, align 8, !tbaa !21
  %31 = getelementptr inbounds nuw %struct.v3_ext_ctx, ptr %30, i32 0, i32 1
  %32 = load ptr, ptr %31, align 8, !tbaa !59
  %33 = call i32 @X509_get_ext_by_NID(ptr noundef %32, i32 noundef 85, i32 noundef -1)
  store i32 %33, ptr %9, align 4, !tbaa !39
  %34 = load i32, ptr %9, align 4, !tbaa !39
  %35 = icmp slt i32 %34, 0
  br i1 %35, label %36, label %37

36:                                               ; preds = %29
  store i32 1, ptr %3, align 4
  store i32 1, ptr %11, align 4
  br label %71

37:                                               ; preds = %29
  %38 = load ptr, ptr %4, align 8, !tbaa !21
  %39 = getelementptr inbounds nuw %struct.v3_ext_ctx, ptr %38, i32 0, i32 1
  %40 = load ptr, ptr %39, align 8, !tbaa !59
  %41 = load i32, ptr %9, align 4, !tbaa !39
  %42 = call ptr @X509_get_ext(ptr noundef %40, i32 noundef %41)
  store ptr %42, ptr %8, align 8, !tbaa !60
  %43 = icmp ne ptr %42, null
  br i1 %43, label %44, label %48

44:                                               ; preds = %37
  %45 = load ptr, ptr %8, align 8, !tbaa !60
  %46 = call ptr @X509V3_EXT_d2i(ptr noundef %45)
  store ptr %46, ptr %6, align 8, !tbaa !11
  %47 = icmp ne ptr %46, null
  br i1 %47, label %49, label %48

48:                                               ; preds = %44, %37
  call void @ERR_put_error(i32 noundef 20, i32 noundef 0, i32 noundef 136, ptr noundef @.str.25, i32 noundef 291)
  br label %70

49:                                               ; preds = %44
  store i64 0, ptr %10, align 8, !tbaa !15
  br label %50

50:                                               ; preds = %65, %49
  %51 = load i64, ptr %10, align 8, !tbaa !15
  %52 = load ptr, ptr %6, align 8, !tbaa !11
  %53 = call i64 @sk_num(ptr noundef %52)
  %54 = icmp ult i64 %51, %53
  br i1 %54, label %55, label %68

55:                                               ; preds = %50
  %56 = load ptr, ptr %6, align 8, !tbaa !11
  %57 = load i64, ptr %10, align 8, !tbaa !15
  %58 = call ptr @sk_value(ptr noundef %56, i64 noundef %57)
  store ptr %58, ptr %7, align 8, !tbaa !17
  %59 = load ptr, ptr %5, align 8, !tbaa !11
  %60 = load ptr, ptr %7, align 8, !tbaa !17
  %61 = call i64 @sk_push(ptr noundef %59, ptr noundef %60)
  %62 = icmp ne i64 %61, 0
  br i1 %62, label %64, label %63

63:                                               ; preds = %55
  call void @ERR_put_error(i32 noundef 20, i32 noundef 0, i32 noundef 65, ptr noundef @.str.25, i32 noundef 298)
  br label %70

64:                                               ; preds = %55
  br label %65

65:                                               ; preds = %64
  %66 = load i64, ptr %10, align 8, !tbaa !15
  %67 = add i64 %66, 1
  store i64 %67, ptr %10, align 8, !tbaa !15
  br label %50, !llvm.loop !62

68:                                               ; preds = %50
  %69 = load ptr, ptr %6, align 8, !tbaa !11
  call void @sk_free(ptr noundef %69)
  store i32 1, ptr %3, align 4
  store i32 1, ptr %11, align 4
  br label %71

70:                                               ; preds = %63, %48, %28
  store i32 0, ptr %3, align 4
  store i32 1, ptr %11, align 4
  br label %71

71:                                               ; preds = %70, %68, %36, %19
  call void @llvm.lifetime.end.p0(i64 8, ptr %10) #6
  call void @llvm.lifetime.end.p0(i64 4, ptr %9) #6
  call void @llvm.lifetime.end.p0(i64 8, ptr %8) #6
  call void @llvm.lifetime.end.p0(i64 8, ptr %7) #6
  call void @llvm.lifetime.end.p0(i64 8, ptr %6) #6
  %72 = load i32, ptr %3, align 4
  ret i32 %72
}

; Function Attrs: nounwind uwtable
define internal ptr @v2i_issuer_alt(ptr noundef %0, ptr noundef %1, ptr noundef %2) #0 {
  %4 = alloca ptr, align 8
  %5 = alloca ptr, align 8
  %6 = alloca ptr, align 8
  %7 = alloca ptr, align 8
  %8 = alloca ptr, align 8
  %9 = alloca ptr, align 8
  %10 = alloca i64, align 8
  %11 = alloca i32, align 4
  %12 = alloca ptr, align 8
  store ptr %0, ptr %5, align 8, !tbaa !6
  store ptr %1, ptr %6, align 8, !tbaa !21
  store ptr %2, ptr %7, align 8, !tbaa !13
  call void @llvm.lifetime.start.p0(i64 8, ptr %8) #6
  store ptr null, ptr %8, align 8, !tbaa !11
  call void @llvm.lifetime.start.p0(i64 8, ptr %9) #6
  call void @llvm.lifetime.start.p0(i64 8, ptr %10) #6
  %13 = call ptr @sk_new_null()
  store ptr %13, ptr %8, align 8, !tbaa !11
  %14 = icmp ne ptr %13, null
  br i1 %14, label %16, label %15

15:                                               ; preds = %3
  call void @ERR_put_error(i32 noundef 20, i32 noundef 0, i32 noundef 65, ptr noundef @.str.25, i32 noundef 249)
  store ptr null, ptr %4, align 8
  store i32 1, ptr %11, align 4
  br label %71

16:                                               ; preds = %3
  store i64 0, ptr %10, align 8, !tbaa !15
  br label %17

17:                                               ; preds = %64, %16
  %18 = load i64, ptr %10, align 8, !tbaa !15
  %19 = load ptr, ptr %7, align 8, !tbaa !13
  %20 = call i64 @sk_num(ptr noundef %19)
  %21 = icmp ult i64 %18, %20
  br i1 %21, label %22, label %67

22:                                               ; preds = %17
  %23 = load ptr, ptr %7, align 8, !tbaa !13
  %24 = load i64, ptr %10, align 8, !tbaa !15
  %25 = call ptr @sk_value(ptr noundef %23, i64 noundef %24)
  store ptr %25, ptr %9, align 8, !tbaa !23
  %26 = load ptr, ptr %9, align 8, !tbaa !23
  %27 = getelementptr inbounds nuw %struct.conf_value_st, ptr %26, i32 0, i32 1
  %28 = load ptr, ptr %27, align 8, !tbaa !25
  %29 = call i32 @name_cmp(ptr noundef %28, ptr noundef @.str.32)
  %30 = icmp ne i32 %29, 0
  br i1 %30, label %49, label %31

31:                                               ; preds = %22
  %32 = load ptr, ptr %9, align 8, !tbaa !23
  %33 = getelementptr inbounds nuw %struct.conf_value_st, ptr %32, i32 0, i32 2
  %34 = load ptr, ptr %33, align 8, !tbaa !28
  %35 = icmp ne ptr %34, null
  br i1 %35, label %36, label %49

36:                                               ; preds = %31
  %37 = load ptr, ptr %9, align 8, !tbaa !23
  %38 = getelementptr inbounds nuw %struct.conf_value_st, ptr %37, i32 0, i32 2
  %39 = load ptr, ptr %38, align 8, !tbaa !28
  %40 = call i32 @strcmp(ptr noundef %39, ptr noundef @.str.33) #7
  %41 = icmp ne i32 %40, 0
  br i1 %41, label %49, label %42

42:                                               ; preds = %36
  %43 = load ptr, ptr %6, align 8, !tbaa !21
  %44 = load ptr, ptr %8, align 8, !tbaa !11
  %45 = call i32 @copy_issuer(ptr noundef %43, ptr noundef %44)
  %46 = icmp ne i32 %45, 0
  br i1 %46, label %48, label %47

47:                                               ; preds = %42
  br label %69

48:                                               ; preds = %42
  br label %63

49:                                               ; preds = %36, %31, %22
  call void @llvm.lifetime.start.p0(i64 8, ptr %12) #6
  %50 = load ptr, ptr %5, align 8, !tbaa !6
  %51 = load ptr, ptr %6, align 8, !tbaa !21
  %52 = load ptr, ptr %9, align 8, !tbaa !23
  %53 = call ptr @v2i_GENERAL_NAME(ptr noundef %50, ptr noundef %51, ptr noundef %52)
  store ptr %53, ptr %12, align 8, !tbaa !17
  %54 = icmp ne ptr %53, null
  br i1 %54, label %56, label %55

55:                                               ; preds = %49
  store i32 5, ptr %11, align 4
  br label %60

56:                                               ; preds = %49
  %57 = load ptr, ptr %8, align 8, !tbaa !11
  %58 = load ptr, ptr %12, align 8, !tbaa !17
  %59 = call i64 @sk_push(ptr noundef %57, ptr noundef %58)
  store i32 0, ptr %11, align 4
  br label %60

60:                                               ; preds = %55, %56
  call void @llvm.lifetime.end.p0(i64 8, ptr %12) #6
  %61 = load i32, ptr %11, align 4
  switch i32 %61, label %71 [
    i32 0, label %62
    i32 5, label %69
  ]

62:                                               ; preds = %60
  br label %63

63:                                               ; preds = %62, %48
  br label %64

64:                                               ; preds = %63
  %65 = load i64, ptr %10, align 8, !tbaa !15
  %66 = add i64 %65, 1
  store i64 %66, ptr %10, align 8, !tbaa !15
  br label %17, !llvm.loop !30

67:                                               ; preds = %17
  %68 = load ptr, ptr %8, align 8, !tbaa !11
  store ptr %68, ptr %4, align 8
  store i32 1, ptr %11, align 4
  br label %71

69:                                               ; preds = %60, %47
  %70 = load ptr, ptr %8, align 8, !tbaa !11
  call void @sk_pop_free(ptr noundef %70, ptr noundef @GENERAL_NAME_free)
  store ptr null, ptr %4, align 8
  store i32 1, ptr %11, align 4
  br label %71

71:                                               ; preds = %69, %67, %60, %15
  call void @llvm.lifetime.end.p0(i64 8, ptr %10) #6
  call void @llvm.lifetime.end.p0(i64 8, ptr %9) #6
  call void @llvm.lifetime.end.p0(i64 8, ptr %8) #6
  %72 = load ptr, ptr %4, align 8
  ret ptr %72
}