; Function Attrs: nounwind uwtable
define internal ptr @v2i_issuer_alt(ptr noundef readnone captures(none) %0, ptr noundef %1, ptr noundef %2) #0 {
  %4 = tail call ptr @sk_new_null() #7
  %.not = icmp eq ptr %4, null
  br i1 %.not, label %22, label %.preheader

.preheader:                                       ; preds = %3
  %5 = tail call i64 @sk_num(ptr noundef %2) #7
  %.not32 = icmp eq i64 %5, 0
  br i1 %.not32, label %.loopexit, label %.lr.ph

.lr.ph:                                           ; preds = %.preheader
  %.not.i = icmp eq ptr %1, null
  %6 = getelementptr inbounds nuw i8, ptr %1, i64 8
  br i1 %.not.i, label %.lr.ph.split.us, label %.lr.ph.split

.lr.ph.split.us:                                  ; preds = %.lr.ph, %.thread.us
  %.01931.us = phi i64 [ %19, %.thread.us ], [ 0, %.lr.ph ]
  %7 = tail call ptr @sk_value(ptr noundef %2, i64 noundef %.01931.us) #7
  %8 = getelementptr inbounds nuw i8, ptr %7, i64 8
  %9 = load ptr, ptr %8, align 8, !tbaa !8
  %10 = tail call i32 @name_cmp(ptr noundef %9, ptr noundef nonnull @.str.32) #7
  %.not23.us = icmp eq i32 %10, 0
  br i1 %.not23.us, label %11, label %16

11:                                               ; preds = %.lr.ph.split.us
  %12 = getelementptr inbounds nuw i8, ptr %7, i64 16
  %13 = load ptr, ptr %12, align 8, !tbaa !14
  %.not24.us = icmp eq ptr %13, null
  br i1 %.not24.us, label %16, label %14

14:                                               ; preds = %11
  %15 = tail call i32 @strcmp(ptr noundef nonnull dereferenceable(1) %13, ptr noundef nonnull dereferenceable(5) @.str.33) #8
  %.not25.us = icmp eq i32 %15, 0
  br i1 %.not25.us, label %.critedge.i, label %16

16:                                               ; preds = %14, %11, %.lr.ph.split.us
  %17 = tail call ptr @v2i_GENERAL_NAME_ex(ptr noundef null, ptr noundef readnone %0, ptr noundef null, ptr noundef nonnull readonly %7, i32 noundef 0)
  %.not27.us = icmp eq ptr %17, null
  br i1 %.not27.us, label %copy_issuer.exit.thread, label %.thread.us

.thread.us:                                       ; preds = %16
  %18 = tail call i64 @sk_push(ptr noundef nonnull %4, ptr noundef nonnull %17) #7
  %19 = add nuw i64 %.01931.us, 1
  %20 = tail call i64 @sk_num(ptr noundef %2) #7
  %21 = icmp ult i64 %19, %20
  br i1 %21, label %.lr.ph.split.us, label %.loopexit, !llvm.loop !16

22:                                               ; preds = %3
  tail call void @ERR_put_error(i32 noundef 20, i32 noundef 0, i32 noundef 65, ptr noundef nonnull @.str.25, i32 noundef 249) #7
  br label %.loopexit

.lr.ph.split:                                     ; preds = %.lr.ph, %copy_issuer.exit
  %.01931 = phi i64 [ %57, %copy_issuer.exit ], [ 0, %.lr.ph ]
  %23 = tail call ptr @sk_value(ptr noundef %2, i64 noundef %.01931) #7
  %24 = getelementptr inbounds nuw i8, ptr %23, i64 8
  %25 = load ptr, ptr %24, align 8, !tbaa !8
  %26 = tail call i32 @name_cmp(ptr noundef %25, ptr noundef nonnull @.str.32) #7
  %.not23 = icmp eq i32 %26, 0
  br i1 %.not23, label %27, label %54

27:                                               ; preds = %.lr.ph.split
  %28 = getelementptr inbounds nuw i8, ptr %23, i64 16
  %29 = load ptr, ptr %28, align 8, !tbaa !14
  %.not24 = icmp eq ptr %29, null
  br i1 %.not24, label %54, label %30

30:                                               ; preds = %27
  %31 = tail call i32 @strcmp(ptr noundef nonnull dereferenceable(1) %29, ptr noundef nonnull dereferenceable(5) @.str.33) #8
  %.not25 = icmp eq i32 %31, 0
  br i1 %.not25, label %32, label %54

32:                                               ; preds = %30
  %33 = load i32, ptr %1, align 8, !tbaa !17
  %34 = icmp eq i32 %33, 1
  br i1 %34, label %copy_issuer.exit, label %35

35:                                               ; preds = %32
  %36 = load ptr, ptr %6, align 8, !tbaa !24
  %.not23.i = icmp eq ptr %36, null
  br i1 %.not23.i, label %.critedge.i, label %37

.critedge.i:                                      ; preds = %35, %14
  tail call void @ERR_put_error(i32 noundef 20, i32 noundef 0, i32 noundef 141, ptr noundef nonnull @.str.25, i32 noundef 283) #7
  br label %copy_issuer.exit.thread

37:                                               ; preds = %35
  %38 = tail call i32 @X509_get_ext_by_NID(ptr noundef nonnull %36, i32 noundef 85, i32 noundef -1) #7
  %39 = icmp slt i32 %38, 0
  br i1 %39, label %copy_issuer.exit, label %40

40:                                               ; preds = %37
  %41 = load ptr, ptr %6, align 8, !tbaa !24
  %42 = tail call ptr @X509_get_ext(ptr noundef %41, i32 noundef %38) #7
  %.not24.i = icmp eq ptr %42, null
  br i1 %.not24.i, label %46, label %43

43:                                               ; preds = %40
  %44 = tail call ptr @X509V3_EXT_d2i(ptr noundef nonnull %42) #7
  %.not25.i = icmp eq ptr %44, null
  br i1 %.not25.i, label %46, label %.preheader.i

.preheader.i:                                     ; preds = %43
  %45 = tail call i64 @sk_num(ptr noundef nonnull %44) #7
  %.not28.i = icmp eq i64 %45, 0
  br i1 %.not28.i, label %._crit_edge.i, label %.lr.ph.i

46:                                               ; preds = %43, %40
  tail call void @ERR_put_error(i32 noundef 20, i32 noundef 0, i32 noundef 136, ptr noundef nonnull @.str.25, i32 noundef 291) #7
  br label %copy_issuer.exit.thread

47:                                               ; preds = %.lr.ph.i
  %48 = add nuw i64 %.027.i, 1
  %49 = tail call i64 @sk_num(ptr noundef nonnull %44) #7
  %50 = icmp ult i64 %48, %49
  br i1 %50, label %.lr.ph.i, label %._crit_edge.i, !llvm.loop !25

.lr.ph.i:                                         ; preds = %.preheader.i, %47
  %.027.i = phi i64 [ %48, %47 ], [ 0, %.preheader.i ]
  %51 = tail call ptr @sk_value(ptr noundef nonnull %44, i64 noundef %.027.i) #7
  %52 = tail call i64 @sk_push(ptr noundef nonnull %4, ptr noundef %51) #7
  %.not26.i = icmp eq i64 %52, 0
  br i1 %.not26.i, label %53, label %47

53:                                               ; preds = %.lr.ph.i
  tail call void @ERR_put_error(i32 noundef 20, i32 noundef 0, i32 noundef 65, ptr noundef nonnull @.str.25, i32 noundef 298) #7
  br label %copy_issuer.exit.thread

._crit_edge.i:                                    ; preds = %47, %.preheader.i
  tail call void @sk_free(ptr noundef nonnull %44) #7
  br label %copy_issuer.exit

54:                                               ; preds = %30, %27, %.lr.ph.split
  %55 = tail call ptr @v2i_GENERAL_NAME_ex(ptr noundef null, ptr noundef readnone %0, ptr noundef nonnull %1, ptr noundef nonnull readonly %23, i32 noundef 0)
  %.not27 = icmp eq ptr %55, null
  br i1 %.not27, label %copy_issuer.exit.thread, label %.thread

.thread:                                          ; preds = %54
  %56 = tail call i64 @sk_push(ptr noundef nonnull %4, ptr noundef nonnull %55) #7
  br label %copy_issuer.exit

copy_issuer.exit:                                 ; preds = %.thread, %._crit_edge.i, %37, %32
  %57 = add nuw i64 %.01931, 1
  %58 = tail call i64 @sk_num(ptr noundef %2) #7
  %59 = icmp ult i64 %57, %58
  br i1 %59, label %.lr.ph.split, label %.loopexit, !llvm.loop !16

copy_issuer.exit.thread:                          ; preds = %54, %16, %.critedge.i, %46, %53
  tail call void @sk_pop_free(ptr noundef nonnull %4, ptr noundef nonnull @GENERAL_NAME_free) #7
  br label %.loopexit

.loopexit:                                        ; preds = %copy_issuer.exit, %.thread.us, %.preheader, %copy_issuer.exit.thread, %22
  %.0 = phi ptr [ null, %copy_issuer.exit.thread ], [ null, %22 ], [ %4, %.preheader ], [ %4, %.thread.us ], [ %4, %copy_issuer.exit ]
  ret ptr %.0
}